Certificate:
    Data:
        Version: 3 (0x2)
        Serial Number: 1 (0x1)
    Signature Algorithm: sha256WithRSAEncryption
        Issuer: CN=hss.openair4G.eur, C=FR, ST=PACA, L=Aix, O=Eurecom, OU=CM
        Validity
            Not Before: Aug  9 08:50:32 2017 GMT
            Not After : Aug  9 08:50:32 2018 GMT
        Subject: C=FR, ST=PACA, O=Eurecom, OU=CM, CN=hss.openair4G.eur
        Subject Public Key Info:
            Public Key Algorithm: rsaEncryption
                Public-Key: (1024 bit)
                Modulus:
                    00:d0:eb:c3:f6:50:2d:24:f1:fc:66:a3:b8:0b:73:
                    4b:bf:13:09:5b:5d:40:49:c3:16:65:77:2d:eb:0b:
                    8a:40:87:8c:60:53:27:b0:90:98:c0:e6:40:7b:fa:
                    c6:33:08:e0:ca:2a:fb:16:5a:b0:09:9a:da:49:80:
                    c8:00:b7:eb:ee:80:81:4d:14:5b:4f:e6:60:18:57:
                    f1:01:2c:d4:cf:e0:2e:a7:cb:9e:fc:b7:81:f5:17:
                    92:1e:01:4e:0f:3c:2a:00:99:ac:6b:af:80:50:21:
                    39:20:c6:2e:7a:a9:69:27:37:63:89:c3:fc:dc:30:
                    67:33:df:7c:97:e8:3f:d2:03
                Exponent: 65537 (0x10001)
        X509v3 extensions:
            X509v3 Basic Constraints: 
                CA:FALSE
            Netscape Comment: 
                OpenSSL Generated Certificate
            X509v3 Subject Key Identifier: 
                DF:B6:14:64:99:0E:35:8D:2B:56:12:5C:4F:A7:3E:24:26:A7:2C:1F
            X509v3 Authority Key Identifier: 
                keyid:01:6E:12:72:98:99:A3:4C:B3:F8:E2:00:A9:AE:A6:99:8C:92:F3:2B

    Signature Algorithm: sha256WithRSAEncryption
         05:b7:8a:fb:f5:fb:1c:b2:71:74:f4:0a:a4:ae:93:37:23:94:
         15:ef:3b:dd:22:09:0b:3a:53:cc:7c:9e:50:49:1d:b1:c9:ff:
         ca:ce:b0:da:fc:be:f1:f0:50:cb:fe:8b:b3:cd:3f:ea:22:81:
         8c:c3:e4:7e:f0:4f:c9:15:3b:a4:e3:f9:9d:1c:c1:f7:28:09:
         a6:32:fd:90:24:b2:8d:ba:be:93:8f:37:d3:ee:01:0a:86:94:
         75:3b:ac:6d:07:42:9b:ce:be:ec:a1:7b:21:df:c5:49:c0:f4:
         37:df:41:f7:72:5b:80:8c:e0:08:01:ce:62:4e:80:72:2e:41:
         4c:a2
-----BEGIN CERTIFICATE-----
MIICrTCCAhagAwIBAgIBATANBgkqhkiG9w0BAQsFADBlMRowGAYDVQQDDBFoc3Mu
b3BlbmFpcjRHLmV1cjELMAkGA1UEBhMCRlIxDTALBgNVBAgMBFBBQ0ExDDAKBgNV
BAcMA0FpeDEQMA4GA1UECgwHRXVyZWNvbTELMAkGA1UECwwCQ00wHhcNMTcwODA5
MDg1MDMyWhcNMTgwODA5MDg1MDMyWjBXMQswCQYDVQQGEwJGUjENMAsGA1UECAwE
UEFDQTEQMA4GA1UECgwHRXVyZWNvbTELMAkGA1UECwwCQ00xGjAYBgNVBAMMEWhz
cy5vcGVuYWlyNEcuZXVyMIGfMA0GCSqGSIb3DQEBAQUAA4GNADCBiQKBgQDQ68P2
UC0k8fxmo7gLc0u/EwlbXUBJwxZldy3rC4pAh4xgUyewkJjA5kB7+sYzCODKKvsW
WrAJmtpJgMgAt+vugIFNFFtP5mAYV/EBLNTP4C6ny578t4H1F5IeAU4PPCoAmaxr
r4BQITkgxi56qWknN2OJw/zcMGcz33yX6D/SAwIDAQABo3sweTAJBgNVHRMEAjAA
MCwGCWCGSAGG+EIBDQQfFh1PcGVuU1NMIEdlbmVyYXRlZCBDZXJ0aWZpY2F0ZTAd
BgNVHQ4EFgQU37YUZJkONY0rVhJcT6c+JCanLB8wHwYDVR0jBBgwFoAUAW4ScpiZ
o0yz+OIAqa6mmYyS8yswDQYJKoZIhvcNAQELBQADgYEABbeK+/X7HLJxdPQKpK6T
NyOUFe873SIJCzpTzHyeUEkdscn/ys6w2vy+8fBQy/6Ls80/6iKBjMPkfvBPyRU7
pOP5nRzB9ygJpjL9kCSyjbq+k4830+4BCoaUdTusbQdCm86+7KF7Id/FScD0N99B
93JbgIzgCAHOYk6Aci5BTKI=
-----END CERTIFICATE-----
