Certificate:
    Data:
        Version: 3 (0x2)
        Serial Number: 1 (0x1)
    Signature Algorithm: sha256WithRSAEncryption
        Issuer: CN=airbustx2w-CELSIUS-M720-POWER.openair4G.eur, C=FR, ST=PACA, L=Aix, O=Eurecom, OU=CM
        Validity
            Not Before: Jul 24 14:02:23 2017 GMT
            Not After : Jul 24 14:02:23 2018 GMT
        Subject: C=FR, ST=PACA, O=Eurecom, OU=CM, CN=airbustx2w-CELSIUS-M720-POWER.openair4G.eur
        Subject Public Key Info:
            Public Key Algorithm: rsaEncryption
                Public-Key: (1024 bit)
                Modulus:
                    00:ac:91:09:9a:3f:4e:41:5e:dc:4a:9c:35:28:1a:
                    cd:3f:b0:3b:e4:55:b9:0f:3a:b8:a2:ef:ad:e3:0c:
                    41:fd:84:6b:7e:51:89:8d:2e:cc:fb:dc:76:d1:e1:
                    32:17:fd:94:f6:d0:40:d0:b4:d8:3b:fa:53:d5:15:
                    bf:79:91:ef:97:9b:f1:49:eb:c5:d8:d0:a6:16:21:
                    c5:5b:06:91:6a:7f:3c:48:5e:3c:fd:54:25:ce:be:
                    36:7f:7f:d5:c0:e0:03:2b:8b:bd:a5:05:70:56:b6:
                    47:02:0b:72:c6:c1:c5:78:95:e5:9e:3d:b0:28:81:
                    8b:8f:aa:71:68:2a:d5:e6:bb
                Exponent: 65537 (0x10001)
        X509v3 extensions:
            X509v3 Basic Constraints: 
                CA:FALSE
            Netscape Comment: 
                OpenSSL Generated Certificate
            X509v3 Subject Key Identifier: 
                72:1F:38:02:9C:9F:85:F7:E2:B5:73:68:28:EE:22:CA:0F:29:19:9F
            X509v3 Authority Key Identifier: 
                keyid:3E:F1:40:ED:59:6D:7D:E7:5D:DD:C1:CB:48:D9:84:97:9B:AF:1C:48

    Signature Algorithm: sha256WithRSAEncryption
         89:7f:66:e2:97:81:b0:11:0c:64:57:ce:33:f1:f1:4e:8b:94:
         53:42:0a:73:6d:18:c2:3e:c3:91:cb:bf:bf:e1:9a:46:70:0c:
         02:4c:01:cd:1e:4f:ee:d0:c0:56:8b:f7:83:bd:6b:75:8a:c7:
         5a:e3:ed:27:77:36:ee:68:5c:57:63:b1:0d:7d:f7:6a:59:5d:
         7f:38:c9:94:21:b0:2e:a9:b4:02:20:5f:76:20:7e:01:84:9e:
         7a:59:19:d7:67:22:e0:2a:a9:26:91:2c:ba:b1:82:69:4a:9f:
         c8:b5:ea:37:7a:49:1d:62:9c:bb:56:34:92:cb:b4:8d:88:08:
         6e:0b
-----BEGIN CERTIFICATE-----
MIIC4TCCAkqgAwIBAgIBATANBgkqhkiG9w0BAQsFADB/MTQwMgYDVQQDDCthaXJi
dXN0eDJ3LUNFTFNJVVMtTTcyMC1QT1dFUi5vcGVuYWlyNEcuZXVyMQswCQYDVQQG
EwJGUjENMAsGA1UECAwEUEFDQTEMMAoGA1UEBwwDQWl4MRAwDgYDVQQKDAdFdXJl
Y29tMQswCQYDVQQLDAJDTTAeFw0xNzA3MjQxNDAyMjNaFw0xODA3MjQxNDAyMjNa
MHExCzAJBgNVBAYTAkZSMQ0wCwYDVQQIDARQQUNBMRAwDgYDVQQKDAdFdXJlY29t
MQswCQYDVQQLDAJDTTE0MDIGA1UEAwwrYWlyYnVzdHgydy1DRUxTSVVTLU03MjAt
UE9XRVIub3BlbmFpcjRHLmV1cjCBnzANBgkqhkiG9w0BAQEFAAOBjQAwgYkCgYEA
rJEJmj9OQV7cSpw1KBrNP7A75FW5Dzq4ou+t4wxB/YRrflGJjS7M+9x20eEyF/2U
9tBA0LTYO/pT1RW/eZHvl5vxSevF2NCmFiHFWwaRan88SF48/VQlzr42f3/VwOAD
K4u9pQVwVrZHAgtyxsHFeJXlnj2wKIGLj6pxaCrV5rsCAwEAAaN7MHkwCQYDVR0T
BAIwADAsBglghkgBhvhCAQ0EHxYdT3BlblNTTCBHZW5lcmF0ZWQgQ2VydGlmaWNh
dGUwHQYDVR0OBBYEFHIfOAKcn4X34rVzaCjuIsoPKRmfMB8GA1UdIwQYMBaAFD7x
QO1ZbX3nXd3By0jZhJebrxxIMA0GCSqGSIb3DQEBCwUAA4GBAIl/ZuKXgbARDGRX
zjPx8U6LlFNCCnNtGMI+w5HLv7/hmkZwDAJMAc0eT+7QwFaL94O9a3WKx1rj7Sd3
Nu5oXFdjsQ1992pZXX84yZQhsC6ptAIgX3YgfgGEnnpZGddnIuAqqSaRLLqxgmlK
n8i16jd6SR1inLtWNJLLtI2ICG4L
-----END CERTIFICATE-----
